; Function Attrs: mustprogress uwtable
define hidden void @_ZNK4cvc58internal7printer4smt211Smt2Printer17toStreamCmdAssertERSoNS0_12NodeTemplateILb1EEE(ptr nonnull readnone align 8 captures(none) %0, ptr noundef nonnull align 8 dereferenceable(8) %1, ptr noundef readonly captures(none) %2) unnamed_addr #3 align 2 personality ptr @__gxx_personality_v0 {
_ZN4cvc58internallsERSoNS0_12NodeTemplateILb0EEE.exit:
  %3 = alloca i8, align 1
  %4 = tail call noundef nonnull align 8 dereferenceable(8) ptr @_ZSt16__ostream_insertIcSt11char_traitsIcEERSt13basic_ostreamIT_T0_ES6_PKS3_l(ptr noundef nonnull align 8 dereferenceable(8) %1, ptr noundef nonnull @.str.380, i64 noundef 8)
  %5 = load ptr, ptr %2, align 8, !tbaa !17
  tail call void @_ZNK4cvc58internal4expr9NodeValue8toStreamERSo(ptr noundef nonnull align 8 dereferenceable(24) %5, ptr noundef nonnull align 8 dereferenceable(8) %1)
  call void @llvm.lifetime.start.p0(i64 1, ptr nonnull %3)
  store i8 41, ptr %3, align 1, !tbaa !15
  %6 = load ptr, ptr %1, align 8, !tbaa !40
  %7 = getelementptr i8, ptr %6, i64 -24
  %8 = load i64, ptr %7, align 8
  %9 = getelementptr inbounds i8, ptr %1, i64 %8
  %10 = getelementptr inbounds nuw i8, ptr %9, i64 16
  %11 = load i64, ptr %10, align 8, !tbaa !55
  %.not.i = icmp eq i64 %11, 0
  br i1 %.not.i, label %14, label %12

12:                                               ; preds = %_ZN4cvc58internallsERSoNS0_12NodeTemplateILb0EEE.exit
  %13 = call noundef nonnull align 8 dereferenceable(8) ptr @_ZSt16__ostream_insertIcSt11char_traitsIcEERSt13basic_ostreamIT_T0_ES6_PKS3_l(ptr noundef nonnull align 8 dereferenceable(8) %1, ptr noundef nonnull %3, i64 noundef 1)
  br label %16

14:                                               ; preds = %_ZN4cvc58internallsERSoNS0_12NodeTemplateILb0EEE.exit
  %15 = tail call noundef nonnull align 8 dereferenceable(8) ptr @_ZNSo3putEc(ptr noundef nonnull align 8 dereferenceable(8) %1, i8 noundef signext 41)
  br label %16

16:                                               ; preds = %12, %14
  call void @llvm.lifetime.end.p0(i64 1, ptr nonnull %3)
  ret void
}